target datalayout = "e-m:e-p270:32:32-p271:32:32-p272:64:64-i64:64-i128:128-f80:128-n8:16:32:64-S128"
target triple = "x86_64-pc-linux-gnu"

%struct._wmem_tree_t = type { ptr, ptr, ptr, i32, i32, ptr }
%struct._wmem_tree_node_t = type { ptr, ptr, ptr, ptr, ptr, i32, i8, i8 }

; Function Attrs: null_pointer_is_valid sspstrong uwtable
define zeroext i1 @wmem_tree_foreach(ptr noundef %0, ptr noundef %1, ptr noundef %2) #0 {
  %4 = alloca i1, align 1
  %5 = alloca ptr, align 8
  %6 = alloca ptr, align 8
  %7 = alloca ptr, align 8
  store ptr %0, ptr %5, align 8
  store ptr %1, ptr %6, align 8
  store ptr %2, ptr %7, align 8
  %8 = load ptr, ptr %5, align 8
  %9 = getelementptr inbounds nuw %struct._wmem_tree_t, ptr %8, i32 0, i32 2
  %10 = load ptr, ptr %9, align 8
  %11 = icmp ne ptr %10, null
  br i1 %11, label %13, label %12

12:                                               ; preds = %3
  store i1 false, ptr %4, align 1
  br label %20

13:                                               ; preds = %3
  %14 = load ptr, ptr %5, align 8
  %15 = getelementptr inbounds nuw %struct._wmem_tree_t, ptr %14, i32 0, i32 2
  %16 = load ptr, ptr %15, align 8
  %17 = load ptr, ptr %6, align 8
  %18 = load ptr, ptr %7, align 8
  %19 = call zeroext i1 @wmem_tree_foreach_nodes(ptr noundef %16, ptr noundef %17, ptr noundef %18)
  store i1 %19, ptr %4, align 1
  br label %20

20:                                               ; preds = %13, %12
  %21 = load i1, ptr %4, align 1
  ret i1 %21
}

; Function Attrs: null_pointer_is_valid sspstrong uwtable
define internal zeroext i1 @wmem_tree_foreach_nodes(ptr noundef %0, ptr noundef %1, ptr noundef %2) #0 {
  %4 = alloca i1, align 1
  %5 = alloca ptr, align 8
  %6 = alloca ptr, align 8
  %7 = alloca ptr, align 8
  %8 = alloca i8, align 1
  %9 = alloca i32, align 4
  store ptr %0, ptr %5, align 8
  store ptr %1, ptr %6, align 8
  store ptr %2, ptr %7, align 8
  call void @llvm.lifetime.start.p0(i64 1, ptr %8) #6
  store i8 0, ptr %8, align 1
  %10 = load ptr, ptr %5, align 8
  %11 = icmp ne ptr %10, null
  br i1 %11, label %13, label %12

12:                                               ; preds = %3
  store i1 false, ptr %4, align 1
  store i32 1, ptr %9, align 4
  br label %76

13:                                               ; preds = %3
  %14 = load ptr, ptr %5, align 8
  %15 = getelementptr inbounds nuw %struct._wmem_tree_node_t, ptr %14, i32 0, i32 1
  %16 = load ptr, ptr %15, align 8
  %17 = icmp ne ptr %16, null
  br i1 %17, label %18, label %27

18:                                               ; preds = %13
  %19 = load ptr, ptr %5, align 8
  %20 = getelementptr inbounds nuw %struct._wmem_tree_node_t, ptr %19, i32 0, i32 1
  %21 = load ptr, ptr %20, align 8
  %22 = load ptr, ptr %6, align 8
  %23 = load ptr, ptr %7, align 8
  %24 = call zeroext i1 @wmem_tree_foreach_nodes(ptr noundef %21, ptr noundef %22, ptr noundef %23)
  br i1 %24, label %25, label %26

25:                                               ; preds = %18
  store i1 true, ptr %4, align 1
  store i32 1, ptr %9, align 4
  br label %76

26:                                               ; preds = %18
  br label %27

27:                                               ; preds = %26, %13
  %28 = load ptr, ptr %5, align 8
  %29 = getelementptr inbounds nuw %struct._wmem_tree_node_t, ptr %28, i32 0, i32 6
  %30 = load i8, ptr %29, align 4, !range !6, !noundef !7
  %31 = trunc i8 %30 to i1
  br i1 %31, label %32, label %40

32:                                               ; preds = %27
  %33 = load ptr, ptr %5, align 8
  %34 = getelementptr inbounds nuw %struct._wmem_tree_node_t, ptr %33, i32 0, i32 4
  %35 = load ptr, ptr %34, align 8
  %36 = load ptr, ptr %6, align 8
  %37 = load ptr, ptr %7, align 8
  %38 = call zeroext i1 @wmem_tree_foreach(ptr noundef %35, ptr noundef %36, ptr noundef %37)
  %39 = zext i1 %38 to i8
  store i8 %39, ptr %8, align 1
  br label %57

40:                                               ; preds = %27
  %41 = load ptr, ptr %5, align 8
  %42 = getelementptr inbounds nuw %struct._wmem_tree_node_t, ptr %41, i32 0, i32 7
  %43 = load i8, ptr %42, align 1, !range !6, !noundef !7
  %44 = trunc i8 %43 to i1
  br i1 %44, label %56, label %45

45:                                               ; preds = %40
  %46 = load ptr, ptr %6, align 8
  %47 = load ptr, ptr %5, align 8
  %48 = getelementptr inbounds nuw %struct._wmem_tree_node_t, ptr %47, i32 0, i32 3
  %49 = load ptr, ptr %48, align 8
  %50 = load ptr, ptr %5, align 8
  %51 = getelementptr inbounds nuw %struct._wmem_tree_node_t, ptr %50, i32 0, i32 4
  %52 = load ptr, ptr %51, align 8
  %53 = load ptr, ptr %7, align 8
  %54 = call zeroext i1 %46(ptr noundef %49, ptr noundef %52, ptr noundef %53)
  %55 = zext i1 %54 to i8
  store i8 %55, ptr %8, align 1
  br label %56

56:                                               ; preds = %45, %40
  br label %57

57:                                               ; preds = %56, %32
  %58 = load i8, ptr %8, align 1, !range !6, !noundef !7
  %59 = trunc i8 %58 to i1
  br i1 %59, label %60, label %61

60:                                               ; preds = %57
  store i1 true, ptr %4, align 1
  store i32 1, ptr %9, align 4
  br label %76

61:                                               ; preds = %57
  %62 = load ptr, ptr %5, align 8
  %63 = getelementptr inbounds nuw %struct._wmem_tree_node_t, ptr %62, i32 0, i32 2
  %64 = load ptr, ptr %63, align 8
  %65 = icmp ne ptr %64, null
  br i1 %65, label %66, label %75

66:                                               ; preds = %61
  %67 = load ptr, ptr %5, align 8
  %68 = getelementptr inbounds nuw %struct._wmem_tree_node_t, ptr %67, i32 0, i32 2
  %69 = load ptr, ptr %68, align 8
  %70 = load ptr, ptr %6, align 8
  %71 = load ptr, ptr %7, align 8
  %72 = call zeroext i1 @wmem_tree_foreach_nodes(ptr noundef %69, ptr noundef %70, ptr noundef %71)
  br i1 %72, label %73, label %74

73:                                               ; preds = %66
  store i1 true, ptr %4, align 1
  store i32 1, ptr %9, align 4
  br label %76

74:                                               ; preds = %66
  br label %75

75:                                               ; preds = %74, %61
  store i1 false, ptr %4, align 1
  store i32 1, ptr %9, align 4
  br label %76

76:                                               ; preds = %75, %73, %60, %25, %12
  call void @llvm.lifetime.end.p0(i64 1, ptr %8) #6
  %77 = load i1, ptr %4, align 1
  ret i1 %77
}